; ModuleID = 'source-C-CXX/56/581.c'
source_filename = "source-C-CXX/56/581.c"
target datalayout = "e-m:e-p270:32:32-p271:32:32-p272:64:64-i64:64-f80:128-n8:16:32:64-S128"
target triple = "x86_64-pc-linux-gnu"

@.str = private unnamed_addr constant [3 x i8] c"%d\00", align 1
@.str.1 = private unnamed_addr constant [3 x i8] c"%s\00", align 1
@__const.cut.word5 = private unnamed_addr constant [32 x i8] c"0\00\00\00\00\00\00\00\00\00\00\00\00\00\00\00\00\00\00\00\00\00\00\00\00\00\00\00\00\00\00\00", align 16
@.str.3 = private unnamed_addr constant [3 x i8] c"er\00", align 1
@.str.4 = private unnamed_addr constant [3 x i8] c"ly\00", align 1

; Function Attrs: nofree nounwind sspstrong uwtable
define dso_local i32 @main() local_unnamed_addr #0 {
  %1 = alloca [50 x [32 x i8]], align 16
  %2 = alloca i32, align 4
  %3 = getelementptr inbounds [50 x [32 x i8]], [50 x [32 x i8]]* %1, i64 0, i64 0, i64 0
  call void @llvm.lifetime.start.p0i8(i64 1600, i8* nonnull %3) #8
  %4 = bitcast i32* %2 to i8*
  call void @llvm.lifetime.start.p0i8(i64 4, i8* nonnull %4) #8
  %5 = call i32 (i8*, ...) @__isoc99_scanf(i8* getelementptr inbounds ([3 x i8], [3 x i8]* @.str, i64 0, i64 0), i32* nonnull %2)
  %6 = load i32, i32* %2, align 4, !tbaa !5
  %7 = icmp sgt i32 %6, 0
  br i1 %7, label %8, label %17

8:                                                ; preds = %0, %8
  %9 = phi i64 [ %13, %8 ], [ 0, %0 ]
  %10 = getelementptr inbounds [50 x [32 x i8]], [50 x [32 x i8]]* %1, i64 0, i64 %9, i64 0
  %11 = call i32 (i8*, ...) @__isoc99_scanf(i8* getelementptr inbounds ([3 x i8], [3 x i8]* @.str.1, i64 0, i64 0), i8* nonnull %10)
  call void @cut(i8* nonnull %10)
  %12 = call i32 @puts(i8* nonnull %10)
  %13 = add nuw nsw i64 %9, 1
  %14 = load i32, i32* %2, align 4, !tbaa !5
  %15 = sext i32 %14 to i64
  %16 = icmp slt i64 %13, %15
  br i1 %16, label %8, label %17, !llvm.loop !9

17:                                               ; preds = %8, %0
  call void @llvm.lifetime.end.p0i8(i64 4, i8* nonnull %4) #8
  call void @llvm.lifetime.end.p0i8(i64 1600, i8* nonnull %3) #8
  ret i32 0
}

; Function Attrs: argmemonly mustprogress nofree nosync nounwind willreturn
declare void @llvm.lifetime.start.p0i8(i64 immarg, i8* nocapture) #1

; Function Attrs: nofree nounwind
declare noundef i32 @__isoc99_scanf(i8* nocapture noundef readonly, ...) local_unnamed_addr #2

; Function Attrs: mustprogress nofree nounwind sspstrong uwtable willreturn
define dso_local void @cut(i8* %0) local_unnamed_addr #3 {
  %2 = alloca [32 x i8], align 16
  %3 = alloca [32 x i8], align 16
  %4 = alloca [32 x i8], align 16
  %5 = alloca [32 x i8], align 16
  %6 = getelementptr inbounds [32 x i8], [32 x i8]* %2, i64 0, i64 0
  call void @llvm.lifetime.start.p0i8(i64 32, i8* nonnull %6) #8
  call void @llvm.memcpy.p0i8.p0i8.i64(i8* noundef nonnull align 16 dereferenceable(32) %6, i8* noundef nonnull align 16 dereferenceable(32) getelementptr inbounds ([32 x i8], [32 x i8]* @__const.cut.word5, i64 0, i64 0), i64 32, i1 false)
  %7 = getelementptr inbounds [32 x i8], [32 x i8]* %3, i64 0, i64 0
  call void @llvm.lifetime.start.p0i8(i64 32, i8* nonnull %7) #8
  call void @llvm.memcpy.p0i8.p0i8.i64(i8* noundef nonnull align 16 dereferenceable(32) %7, i8* noundef nonnull align 16 dereferenceable(32) getelementptr inbounds ([32 x i8], [32 x i8]* @__const.cut.word5, i64 0, i64 0), i64 32, i1 false)
  %8 = getelementptr inbounds [32 x i8], [32 x i8]* %4, i64 0, i64 0
  call void @llvm.lifetime.start.p0i8(i64 32, i8* nonnull %8) #8
  call void @llvm.memcpy.p0i8.p0i8.i64(i8* noundef nonnull align 16 dereferenceable(32) %8, i8* noundef nonnull align 16 dereferenceable(32) getelementptr inbounds ([32 x i8], [32 x i8]* @__const.cut.word5, i64 0, i64 0), i64 32, i1 false)
  %9 = getelementptr inbounds [32 x i8], [32 x i8]* %5, i64 0, i64 0
  call void @llvm.lifetime.start.p0i8(i64 32, i8* nonnull %9) #8
  call void @llvm.memcpy.p0i8.p0i8.i64(i8* noundef nonnull align 16 dereferenceable(32) %9, i8* noundef nonnull align 16 dereferenceable(32) getelementptr inbounds ([32 x i8], [32 x i8]* @__const.cut.word5, i64 0, i64 0), i64 32, i1 false)
  %10 = tail call i64 @strlen(i8* noundef nonnull dereferenceable(1) %0) #9
  %11 = shl i64 %10, 32
  %12 = add i64 %11, -8589934592
  %13 = ashr exact i64 %12, 32
  %14 = call i8* @strncpy(i8* noundef nonnull %7, i8* %0, i64 %13) #8
  %15 = call i8* @strcpy(i8* noundef nonnull %8, i8* noundef nonnull %7) #8
  %16 = call i8* @strcpy(i8* noundef nonnull %9, i8* noundef nonnull %7) #8
  %17 = call i64 @strlen(i8* noundef nonnull %7)
  %18 = getelementptr [32 x i8], [32 x i8]* %3, i64 0, i64 %17
  call void @llvm.memcpy.p0i8.p0i8.i64(i8* noundef nonnull align 1 dereferenceable(3) %18, i8* noundef nonnull align 1 dereferenceable(3) getelementptr inbounds ([3 x i8], [3 x i8]* @.str.3, i64 0, i64 0), i64 3, i1 false)
  %19 = call i32 @strcmp(i8* noundef nonnull %7, i8* noundef nonnull dereferenceable(1) %0) #9
  %20 = icmp eq i32 %19, 0
  br i1 %20, label %26, label %21

21:                                               ; preds = %1
  %22 = call i64 @strlen(i8* noundef nonnull %8)
  %23 = getelementptr [32 x i8], [32 x i8]* %4, i64 0, i64 %22
  call void @llvm.memcpy.p0i8.p0i8.i64(i8* noundef nonnull align 1 dereferenceable(3) %23, i8* noundef nonnull align 1 dereferenceable(3) getelementptr inbounds ([3 x i8], [3 x i8]* @.str.4, i64 0, i64 0), i64 3, i1 false)
  %24 = call i32 @strcmp(i8* noundef nonnull %8, i8* noundef nonnull dereferenceable(1) %0) #9
  %25 = icmp eq i32 %24, 0
  br i1 %25, label %26, label %28

26:                                               ; preds = %21, %1
  %27 = call i8* @strcpy(i8* noundef nonnull %6, i8* noundef nonnull %9) #8
  br label %32

28:                                               ; preds = %21
  %29 = add i64 %11, -12884901888
  %30 = ashr exact i64 %29, 32
  %31 = call i8* @strncpy(i8* noundef nonnull %6, i8* %0, i64 %30) #8
  br label %32

32:                                               ; preds = %28, %26
  %33 = call i8* @strcpy(i8* noundef nonnull dereferenceable(1) %0, i8* noundef nonnull %6) #8
  call void @llvm.lifetime.end.p0i8(i64 32, i8* nonnull %9) #8
  call void @llvm.lifetime.end.p0i8(i64 32, i8* nonnull %8) #8
  call void @llvm.lifetime.end.p0i8(i64 32, i8* nonnull %7) #8
  call void @llvm.lifetime.end.p0i8(i64 32, i8* nonnull %6) #8
  ret void
}

; Function Attrs: argmemonly mustprogress nofree nosync nounwind willreturn
declare void @llvm.lifetime.end.p0i8(i64 immarg, i8* nocapture) #1

; Function Attrs: argmemonly mustprogress nofree nounwind willreturn
declare void @llvm.memcpy.p0i8.p0i8.i64(i8* noalias nocapture writeonly, i8* noalias nocapture readonly, i64, i1 immarg) #4

; Function Attrs: argmemonly mustprogress nofree nounwind readonly willreturn
declare i64 @strlen(i8* nocapture) local_unnamed_addr #5

; Function Attrs: argmemonly mustprogress nofree nounwind willreturn
declare i8* @strncpy(i8* noalias returned writeonly, i8* noalias nocapture readonly, i64) local_unnamed_addr #6

; Function Attrs: argmemonly mustprogress nofree nounwind willreturn
declare i8* @strcpy(i8* noalias returned writeonly, i8* noalias nocapture readonly) local_unnamed_addr #6

; Function Attrs: argmemonly mustprogress nofree nounwind readonly willreturn
declare i32 @strcmp(i8* nocapture, i8* nocapture) local_unnamed_addr #5

; Function Attrs: nofree nounwind
declare noundef i32 @puts(i8* nocapture noundef readonly) local_unnamed_addr #7


!llvm.module.flags = !{!0, !1, !2, !3}
!llvm.ident = !{!4}

!0 = !{i32 1, !"wchar_size", i32 4}
!1 = !{i32 7, !"PIC Level", i32 2}
!2 = !{i32 7, !"PIE Level", i32 2}
!3 = !{i32 7, !"uwtable", i32 1}
!4 = !{!"clang version 13.0.0"}
!5 = !{!6, !6, i64 0}
!6 = !{!"int", !7, i64 0}
!7 = !{!"omnipotent char", !8, i64 0}
!8 = !{!"Simple C/C++ TBAA"}
!9 = distinct !{!9, !10}
!10 = !{!"llvm.loop.mustprogress"}
